(lp0
S'VHsNB3pdGVcRgs6C3jt6Zg'
p1
aS'rWtglX0leY_pqi-UD820Ag'
p2
aS'b731rZn5w-LxgkT1PeuNYg'
p3
aS'4hWDMVtfnpyY72_5QMbthA'
p4
aS't952QLgrh-5l1woJ4IFgUA'
p5
aS'ezFZVzNCtPdFATNGzCumjw'
p6
aS'NEVA0IYbawceL6kz5v5DAw'
p7
aS'vRAM7lfJDY6pLZlxd4ge1Q'
p8
aS'pCer-vIZM05p423MFmiSng'
p9
aS'BcrFZDyviqw_wF9oQQ5qVA'
p10
aS'hP2DOm7E2H4P7MOS7XN_SQ'
p11
aS'mklo4H47YWK7f18YXTCEoA'
p12
aS'PzRgohlnHNN0C0Len1At0Q'
p13
aS'o80p16nM5CWbl22JP1nB-w'
p14
aS'u_MdwAj7eGenc0YhqQy6nA'
p15
aS'pJlHbIoePemy_wQVpWTR2g'
p16
aS'7B-suS0RHxqxZBBfVfiPLA'
p17
aS'RnGG5bAz4nTPo_Ui99Kzbg'
p18
aS'OKHHpjAhYyJrxulgCgngFg'
p19
aS'qaS11gk1kIlrzCX1LYiZsw'
p20
aS'S_9OaE_RBWBIXnUKvxJKsQ'
p21
aS'bkh5o6bCzDCovSkRYBsU1w'
p22
aS'dE_5fWVjBA0W4H7q2iwijQ'
p23
aS'HAgPykErkXpPJlwOHbY01Q'
p24
aS'U8VXQaeog9wb_Y6hCkfitg'
p25
aS'KKOmfySnxK96EtlgOU9Hjg'
p26
aS'1xeyFW6daV8jdt3dM1nhqQ'
p27
aS'dIZcPB3CtNjMn4O_p8QFxw'
p28
aS'jK8PNNtv4RI6m-xd-tGjPQ'
p29
aS'PTQVaWA-I5ZLzwy5oBbVMg'
p30
aS'sjVVGhnLJrcEq0ErUL168w'
p31
aS'CObgcxFJuEXZZpm4Mw3z1A'
p32
aS'68HNLNwMfXu1NuL_2E4N7A'
p33
aS'MpAhuv_BBhYHDElgx1pD4g'
p34
aS'mZJdFjxvVddqPN5RZdKSHg'
p35
aS'NFUINoS0tUsp3qy7wLIB1A'
p36
aS'tQaIWc9qeiB1IU163LKlAw'
p37
aS'ECKXHrl2GqNKRMG9jp4trg'
p38
aS'vt2NMSbKpVN0r0HI6Az4bw'
p39
aS'm3qsb7Xf9Pivg9GAvx-gog'
p40
aS'GEpIV65f4afQHlL-yxC3wA'
p41
aS'ETxB6iSdRyhX4PTY0AnAIA'
p42
aS'beBdNA6cEuDLvrhTi_EjKQ'
p43
aS'swdilw4Vbk-196sTVdMo-A'
p44
aS'fbQjAy7MTR8hdt4Gg2H_dA'
p45
aS'JbnNk6do3aHF3Kr1bX4HzQ'
p46
aS'BvARTl3t-aztQ9HPKc9xGQ'
p47
aS'7m8MoWuudrxU98fEw7iBIw'
p48
aS'D-B5LsTHJgrhsHVex4gyHA'
p49
aS'uMHk2kudlAN94fFVNdYhxw'
p50
aS'RwMlwusAtxZc5a3ZYduulg'
p51
aS'vCopginiBsz1STNhQPb8XA'
p52
aS'YrZxRSTg_dVbZd5PXz7G5Q'
p53
aS'oYMsq2Xvzw6UbrIlMWjb-A'
p54
aS'EcgJ_PI0DBPP1UyLCF1zxQ'
p55
aS'MA5R-mV6ljRM1MK6Mdiv5g'
p56
aS'7siEeRGqAJ730IkwAtcWAQ'
p57
aS'rNbAIbTn0zN8yNk0IV7dfQ'
p58
aS'rVF2CysgSp8BxdYYF0lEGA'
p59
aS'a1sp-PiwbAthYG1JR8NfLg'
p60
aS'rOPj68rUjK9tv84ShWaetg'
p61
aS'ldKrUirpZZ6JDnNwOwLpvw'
p62
aS'EsDG5Yit6y5OvK4ocBfmyw'
p63
aS'N5PfEojrY4rFqpqzno4aZg'
p64
aS'3C_S1j70o3nYJUTvnVo7dQ'
p65
aS'ODURDhURWmZr6b--O4nt3w'
p66
aS'5TPyzmhr3TKyWkPfzm01wA'
p67
aS'-hliqBp7tq7Z5XLaTLAXAg'
p68
aS'pFvyOYi1O5umrbzGVYSYKg'
p69
aS'vAUDxhbsWZKI8NJlsYwCMA'
p70
aS'y2V42mxWvVoH4NvUT_n8eg'
p71
aS'kyXEnWKQGWSThY6EcjORuw'
p72
aS'LElQBiDw8HyU_LrbjP8C1A'
p73
aS'dKncjeWnvdqYiNC8l26fog'
p74
aS't6ufZ29wxZ9_zYO5DRPgwA'
p75
aS'-5dd-RjojGVK9hjAMCXVZw'
p76
aS'G_FJqiQqZpIlbalWobC0vA'
p77
aS'8BUVhDF9yLzzthhFxeceYA'
p78
aS'5bTjUBhGbild5tuzfAmIJg'
p79
aS'z3hD4GX5gSJtuqNhN-o2cg'
p80
aS'Bfh_ON-LQUcJerjcDF5KNA'
p81
aS'yw3dfUD1PO8EdGLHdbGevA'
p82
aS'iZleRh4SOtf4GquA5L8WXw'
p83
aS'aFJ8NSdpJi9LcaMm6ICowQ'
p84
aS'-5NXoZeGBdx3Bdk70tuyCw'
p85
aS'Pz2mK5ZkmiWiHZG0OUcKdw'
p86
aS'leoEzfEj27czYZEgBJdK5w'
p87
aS'NSzhahVpI_B32snhJHM0HA'
p88
aS'Piw4Xr1wNyL4lgmwLZ2eTg'
p89
aS'dIUHCuiAlzkxfgCEOtky8w'
p90
aS'aoPNxrEMG7aFzEuRjMy5Vg'
p91
aS'EmezZdxbvjydG5FkN6Mecw'
p92
aS'QN8RBpGAtaMlFiTM7jiuJA'
p93
aS'BKNPoWf3bQoxFWf-Kjt3wQ'
p94
aS'1S6eB9Ag2VMx3Ab7LHORJw'
p95
aS'SvxSoyZn0WW0c7bFLIYfMA'
p96
aS'miMx3VNOW8qPJC5wEGaIOw'
p97
aS'rM1soPduv--f7ILhEdb8GQ'
p98
aS'x792tXM8gIf6-nU2IiiAEQ'
p99
aS'LzK_0z9OoG1NBaTq16MrUA'
p100
aS'YERn2kltXVj9936i6T4Q8w'
p101
aS'pVLZQRs67CF4gZCEYCe_3Q'
p102
aS'xX2uM2EIeR03KrGBCrOrcA'
p103
aS'PgMt7JtwUB-QUoRZAbwUng'
p104
aS'gEJZ5USuvC1r8_QvSvDCNA'
p105
aS'M8G8S2takaE_NOVutGzEkg'
p106
aS'Cqqd6l6jSx7pOnsgtLp_dQ'
p107
aS'vVdY2qDO7dkUrU8LXYZ1uA'
p108
aS'JbWQtVLQDEOBlvbVWk2OFg'
p109
aS'9A1C1f0m4nQltQrOOTl-Kw'
p110
aS'VRKJpWhQeUE_38jnKrgsrA'
p111
aS'76r8VHva6jgDIAn6rRMuMw'
p112
aS'-i3dOjumvOw-52aGXU1xDg'
p113
aS'L57D-jGExAu6HwjByT8BOQ'
p114
aS'ZO_BLTRN9hsxjO5LsNnp0Q'
p115
aS'oWQwUw8xfQgi1nVNKgS6vA'
p116
aS'QxbVPV2xndVP-nT1IRKF1w'
p117
aS'E1R-eyNDimJzdtajqh9KsQ'
p118
aS'wBQRhH9fEqME-sPU5sUlaw'
p119
aS'r_QcMIgY2zxdcV40kK_rxw'
p120
aS'rQX6RVr6E4Zg9hx8GBFGHQ'
p121
aS'0Tiq09V_kdMFPa1cL6I0AA'
p122
aS'3G_bblT7MQIlXx8BBorILQ'
p123
aS'guT_rF7lF9SnXOa5FN1byw'
p124
aS'uf8WNaHKKssMUbQVg8nJ7g'
p125
aS'5SiEdiiTOSXgJlSE-UgqFw'
p126
aS'Q2bnRzJ8AC-3lWyQY8DZqA'
p127
aS'UITomlnpbixMcYNXsVV9Rg'
p128
aS'gOMc2QcDaMIOkIVTShqoYA'
p129
aS'Pgbnj8TaADhaatrRTE0IVQ'
p130
aS'pH72Y8aqqJlq3bgtj-d3UA'
p131
aS'uMuTnzVi9DzDXfG7gVDU3A'
p132
aS'PmVxbit6HDDsEUS-j9aDfg'
p133
aS'qFwc6pD29qnTgd9tZDRYig'
p134
aS'6vVkSaymw-4MOTPh68HN3Q'
p135
aS'EoPd4SI9-mnkyb2CJcgkLA'
p136
aS'hX-foSZsr_fW_n7ydo4D0Q'
p137
aS'0FrYsoVHheQGoXEQsH2d2Q'
p138
aS'2pbOSrbB5AtQIa240AXNvQ'
p139
aS'J5U-nbhKSnnX7DJGT6QELg'
p140
aS'XtJj67rKT16a4tQw7bxtyw'
p141
aS'1DedueD53YsKcpqMWPIe9w'
p142
aS'hPc-mAHv4jfKeXqOxYJuAw'
p143
aS's173l3ubdDLHeFIBO3ydrw'
p144
aS'gaR5jDvZsOC0RQeY-W1eqQ'
p145
aS'nsSfCKW9KDB4COj9bzXApw'
p146
aS'dn9lwYUxmhs_mLKPu7L25Q'
p147
aS'4ZAy5ZCTWbduzzhtR0egHQ'
p148
aS'wlZ3ybXuoe3io2yuOE00rA'
p149
aS'D5tiB1t8VRQOvvI-zgkq3Q'
p150
aS'hvPPw19VdGRsOEkxgyD7tg'
p151
aS'ly0oNXKOoSZyr0mzOsVJhg'
p152
aS'KedpWqBphmRopwBd7trzFw'
p153
aS'a92JNh69GKZod2RAadWpvw'
p154
aS'6GJ9K4HadzMBZG4WY_P9bw'
p155
aS'yiWYJnHngOJWuP_CFP6Itw'
p156
aS'cFp-Kr831uIA3F6o5aeV2Q'
p157
aS'ZGIkQIh3KTLM1yOCNpvU5Q'
p158
aS'iLPBZ_ic0LyiviqfXbkjwg'
p159
aS'6mYtRm6smtgt29hLxt1vDA'
p160
aS'r9xW1wXycs4MPpqB-Vknzg'
p161
aS'rmHPZk6jT7NlfJU457oHwg'
p162
aS'uma0HNsysznSfPbQb2HD5g'
p163
aS'g_oOjzFgqmSEAD4crxBirA'
p164
aS'MPAPVFk66pplvv7rkcVfiQ'
p165
aS'FeXsYKhyJ7F8t0-kn5JldQ'
p166
aS'DSiLqPi_2AoY6UsZRKez0g'
p167
aS'5lw5rrhFMz-liykUn8dGSw'
p168
aS'cLrsYJSVjDQbaVikQSpnbQ'
p169
aS'Mc9sMBVNi53lqxHLCiLWiA'
p170
aS'VHskIuH12SlaguUA83XmYA'
p171
aS'dNch89PUCbxvhieKmWi8LQ'
p172
aS'E4t43bnsfeOY2bv_8IPmSw'
p173
aS'0aA5l11oXes0aS6mkN5lMQ'
p174
aS'ZxQlHVm0pj0ERqpwhEHc6w'
p175
aS'-XH3-e3jDVdjHJq7GfNY7w'
p176
aS'8GUMO244E8CxfJcyJIWFOA'
p177
aS'-865Ps6xb3h1LP67JcQ3mA'
p178
aS'ltqvLrYq9QjeQjQ1NlqLcA'
p179
aS'zV_aclADLjx2KOql9F_FTw'
p180
aS'zUayeEQ3_1fM_71X_1PdGQ'
p181
aS'5r-kh_n_ivSmkrfGMtbtog'
p182
aS'NsHKS_H2EMBYT-7KLWqjxA'
p183
aS'i_t8WTwztuHweRqQ89hmuQ'
p184
aS'7nZ88t3E3hSgYoAvD1Hakw'
p185
aS'k441Clzdv9Ia4QZanEne3g'
p186
aS'ZQH1s3nTDyclGrQ160NrEQ'
p187
aS'EVLfFsWU_l1m1Hj0gWJIvQ'
p188
aS'Hw0hdZnM7z5uBTwbW8jHMA'
p189
aS'PGUuVJEzM0H-ZMB6m1D6Ig'
p190
aS'MRE5_phUbPZFcNOsBjIUyQ'
p191
aS'tZT_0yAeFxuihVnGXoCbWQ'
p192
aS'EKQiKd7EMZjsa4JokFaeAg'
p193
aS'CmCqXvO1weWgwaZMjMa55w'
p194
aS'rVu3i1E4ekttmE1tzN-1tg'
p195
aS'A_wn7gdvQAv5F2-0CBjgEA'
p196
aS'bAFgHFzpG_raPPGZgDCw4g'
p197
aS'FUTAQs8NEgpiQUXISaXfLg'
p198
aS'xJ8UiVH7yDXpCkxNyVw7EA'
p199
aS'CPjWjKn4bj3QQFQ1nUlXUg'
p200
aS't0HT9od2xZ0Fc5a0PFB2BQ'
p201
aS'CpNMXASiwtJv5eCDf0n63g'
p202
aS'dA9xisX951rOnx8IGLPfjw'
p203
aS'w5Y_FiGPSlPemJVxAZZToQ'
p204
aS'24UHe1SZ4cgm6u6bU_L6xA'
p205
aS'HLTy85yV2H8Wj3LlC_kQxw'
p206
aS'PD2MAlYYi9HCqPH7IBKwTg'
p207
aS'EybiuKEnH-AHYG34qG8gFw'
p208
aS'aELkI0mfF1EbQo_m44vEKg'
p209
aS'9HP13JaP9nmN3qX5v0jamw'
p210
aS'sjpsGKPABZDnABCv3wYtUQ'
p211
aS'pQeaRpvuhoEqudo3uymHIQ'
p212
aS'iLxG2Oo8HNSZFvJvba4W6g'
p213
aS'N9bjF5E2ms6fSWEMmvt39w'
p214
aS'rnQLIVk3U7HI7kHRMxC16A'
p215
aS'0grgvnq4GgoY-estWytUhg'
p216
aS'2BEJCBkNzOBXaydBJf5k0A'
p217
aS'iBRwl7sirmvg22AYnMPONQ'
p218
aS'R32Yh0XxxanldkIp11fuRg'
p219
aS'BU44MZzM82yPiBhMyj9r7w'
p220
aS'KZG8txc-vzkfDt-4ZYeREA'
p221
aS'xLeOANU-lqtDOIV6Owm3EQ'
p222
aS'kokytV29X4717mjIC3H7Xg'
p223
aS'w2xwgqHM7dJlHfyu4ouhBg'
p224
aS'0GRVMdloeBnXd0wZIVSYXA'
p225
aS'f_CDR6H4QL1K3SeaBe7r3g'
p226
aS'UmZdQID7QJoyg2R92mK3HA'
p227
aS'e0prCZXtHGQIKeQ_wTW3uw'
p228
aS'5SG7wYkCdZ_3sTJ4SmjUaA'
p229
aS'boIILzBqhjWhq4G0BsB5_A'
p230
aS'4OuEWZHLRISfdfoz_DOZIw'
p231
aS'o9nGD3J0btXjE9M6IdgZTA'
p232
aS'zp3rZNu-5qonTL3ByPYOUg'
p233
aS'ab-SN9sTNB29QzrgjgniUQ'
p234
aS'wgImSrYc5LOcFaMcbOuxkg'
p235
aS'xD6Q0UFxO8uE4bdaBDIMlA'
p236
aS'2YnUIGGmhoJX4Cd61nQLkg'
p237
aS'bVt5eOVdpZzg83qlW9Rl2g'
p238
aS'cjdX2cwSmp47ia47V3YySg'
p239
aS'62Ibju8UmUZtPIBLDS_nUw'
p240
aS'dn0ZzSIqGMMHJqUX2By7Zw'
p241
aS'a3hjBPsnpcTpcquQXLeS0w'
p242
aS'sYf2auhosrx8trbyP9nGyw'
p243
aS'08xwfgONKGqke1wwuby3wg'
p244
aS'wxxn-2vEWky9ROitqfYFzw'
p245
aS'fl2TPNWrchkCbNEg0utjvw'
p246
aS'HbK6IfznbVToEaKVC0WcSg'
p247
aS'WAAYgXdq-1zdo5Je-pq3kg'
p248
aS'b8zjLuBTk3SfqcNEMJUnDA'
p249
aS'o-xFcSeSycAfqplklC222Q'
p250
aS'gEPH0lm8IJcC8dkkwHJ7fA'
p251
aS'OyBStpjF5e_iRCMXflFasQ'
p252
aS'T4IScPfP4ywj_dZAqWpxKg'
p253
aS'OC5BqhpPhnJJr7IXLsXIbg'
p254
aS'SFh9uHtGR1lVPH2RTS2SWQ'
p255
aS'Y0_KRVDTasHCTh_P-WRSqg'
p256
aS'jUddhNjGAE6W7MQKaUEZ4Q'
p257
aS'uvVOuCbo4_5z_J5WJVG4QQ'
p258
aS'WDTzX_C2CbAwxBbqm-od6g'
p259
aS'QDA9xZaX4n0H7dbkTRyCYw'
p260
aS'zLTacjiwYO-_ivAWkpjcIQ'
p261
aS'jKxES7iLV63H_PfyGVGIDw'
p262
aS'DO9Wp7zXwc2ZNEb8cXaqbg'
p263
aS'EVkytEhlC1nswqmgrHdviw'
p264
aS'bsrqpg0zJZG4NMhA0W28LQ'
p265
aS'yiFcujhdkeDhmXRufMG-lw'
p266
aS'ZMcbVIEXsLO7j1Q1GXKPSw'
p267
aS'sOPBbhDCi7bJlW7dNBuITg'
p268
aS'zQNJwaWR1M1zDjLNVJiNEw'
p269
aS'wCoAzScVWpL9bsDsyf1EIQ'
p270
aS'gZtJyb2oEpwo1rnovDVPfA'
p271
aS'tx_0mIXEr4TPucSYyfA2eg'
p272
aS'eJtmOfqwGj5sYKQrB01oWQ'
p273
aS'8k2l-fbaeQU9lVG4oRgxUw'
p274
aS'PiD4hteskHnFC4GowN34cw'
p275
aS'ZyOgY-z9sHdHp8_FDoQAJg'
p276
aS'Ell98LV4Yuc0DqZwGE8gWQ'
p277
aS'Ez1U0wMD7Wws2BPAYfW3yQ'
p278
aS'yh-JA5fV2QkGaBUjfvioIQ'
p279
aS'iO86eCaZJBHqi1sZ1ELk6A'
p280
aS'TPGX7BhNG2CX3DV54Pt34g'
p281
aS'N_W4JlpCw02VPSf5Mrxwqg'
p282
aS'PBmfdx-tC2D54FI3HtcKww'
p283
aS'SgG5E7PUrCIsEMP0BVSlTg'
p284
aS'a39B-BfbCipNkNH7vwCfug'
p285
aS'HvRWUE3yP3mY4mZiG6UtJg'
p286
aS'Z7r_FJXEyfyvVsyv2y7gFQ'
p287
aS'tjflM9icU-y6xqNntOXtOQ'
p288
aS'VuMgSpUJ9ONgSkddjM4JqQ'
p289
aS'QtRgDAK6k0JELN2_hi0ayw'
p290
aS'Z2W3K8x9cRGXvlGWerZH-w'
p291
aS'quBiDNgMLYoWP6Q2YSgZLg'
p292
aS'ejdBoVvEdn5fdycuJRen8Q'
p293
aS'yE4k_CM9L0yPVVozyELfSQ'
p294
aS'uGxZdLLgMQDvFSqiXyCg_w'
p295
aS'lWmDrnqgU6w3gFaJyn_1Uw'
p296
aS'C8pQz67ragXUlee19tCivA'
p297
aS'XbHxWOciYlBhJOjKRQbo9g'
p298
aS'tCCBl_sHPQsJg37g2fjRpA'
p299
aS'asCPMMAA1wW3GJvrPA4fTA'
p300
aS'GWS5s8HSm1zjqMLJD7wQLg'
p301
aS'QHbrfA9nSNLFcevsfQk6dQ'
p302
aS'kj44upIDaMIPlYvsuweP4g'
p303
aS'NXERVbjRdwe0Deg4d_fVlA'
p304
aS'xHjcLBgB3i9u_dHQZ8rirg'
p305
aS'epvLkQNL6MOvk3s6JlTntA'
p306
aS'3B74iILT_W1ptfQeW7pIYQ'
p307
aS'xeN57OX3lJfY96nfEx63fg'
p308
aS'X3-dI5LGMdv6EQ8OLoOU9w'
p309
aS'o2zAHduE6ubeqR7kaHzSvQ'
p310
aS'7AlULGZI1pHt0imODsqdkg'
p311
aS'nJktGdlCdrH66UtlADlWJg'
p312
aS'p0LusgO7QmgxJF0XenzJfA'
p313
aS'GkQxwsRXYioD2VtCjNfedw'
p314
aS'XODz0rilGYo6_xd5e7isOw'
p315
aS'CKqHfvcqx73-Uz0xGMHL6Q'
p316
aS'SViPlfsmwqvWNxZuVOgOMQ'
p317
aS'dvMHcBgCdy72ikzEPTr7ag'
p318
aS'6U8Yniq8cMQcedhs040ZoA'
p319
aS'4SGa5HFu7Q4rrsAAWJa-ew'
p320
aS'tfmTXVlF1JUJ-AauRwBiKw'
p321
aS'e9shtyZ7-9GYcbPIVV--XQ'
p322
aS'QD61fmXTp476qfS0dpt2Lw'
p323
aS'9MnbQg7kfb_WgxoV0hXKSQ'
p324
aS'S7TY9oCMqK-TffWrygetcw'
p325
aS'4Vig7oCo9P-j2OnPUfaXCA'
p326
aS'6jsuYyjUM45WAX-6SxOQgQ'
p327
aS'c9PkUjunOI49r9oO4ZJcmQ'
p328
aS'd-l0D4N236Qc0-Iy-p1cFw'
p329
aS'Xg0KdzifsyAtHQVwFRUJ5A'
p330
aS'nyI3q0CseFbPbTobHuzgkw'
p331
aS'AZw_8ngMd8vnAbzKX7zPlw'
p332
aS'kKCwp86xU9XKRnAALQDhrw'
p333
aS'1HlqxfcQQgYLYoMhuxSeXA'
p334
aS'w5YH9J_ReVTKXobqs7yYZg'
p335
aS'u8C8pRvaHXg3PgDrsUHJHQ'
p336
aS'doEpdTg3l55-IWemTlG3tg'
p337
aS'QdganL5AW9E_fNoRVroLig'
p338
aS'A_eABcl0LTts73RNo2Np2Q'
p339
aS'wfO1xdAeJMb_miGDU19W-w'
p340
aS'yUB8CDsYMES3cN-xcHXCkQ'
p341
aS'5CSGxhesXkz2XNQB8AP6Kw'
p342
aS'sy8lzojvZUcEf0qgytzznQ'
p343
aS'C_Zj7H7bUJ5kGCwFmEwW6w'
p344
aS'ATEOnDYQCYSwCCH6hxenlQ'
p345
aS'l4x5FFzfiCFrGN0S-uZbBQ'
p346
aS'7U7uLS9YjjhBM1SoyNH30w'
p347
aS'Wq84zy8_rw1IkAqPcPqJ9g'
p348
aS'bQ8ndy52Rcdv3uYvoJWQ_w'
p349
aS'zTGxLMOd9crAz0XNzqrcrA'
p350
aS'mvhokWwVKgfE-koLlc4VEw'
p351
aS'NpNSOfnPxJKa8_qh83NArw'
p352
aS'h2vFVV5pJjn8arA7GR6mQg'
p353
aS'KGpsB2dsdkxl8SGVUlJbZw'
p354
aS'Y-rCSbMqXWk54bKRAIoyUQ'
p355
aS'rf8x3ZTUwzmRUyJgoIZllQ'
p356
aS'U7T6ioQJ17YPh_LG6xDTWA'
p357
aS'KCQNEIvtU48Mh07uS-_Gvw'
p358
aS'oK9mdYF8q0XSkhpKs8ChHg'
p359
aS'gaviK8-M4QdeoQOiAwdaYA'
p360
aS'fK0Z3tHJZ9zB0JeWlQT3xQ'
p361
aS'm6nLTIrEJHtHSYJjVavnzw'
p362
aS'VsLcYJHIat78FUyP08GusA'
p363
aS'UTrqsP-oQrwoIOmBv_Jtzg'
p364
aS'831BmmuoZF8px1KhBmRB9w'
p365
aS'2e5Q-0Pr23NFEhgpYG8cFw'
p366
aS'1uWQHvSL7-7rsRuHaZhM_A'
p367
aS'myyJxx7nvs-5_T-Uvc-kLw'
p368
aS'I2EHSRP50SXxvfoWc8MIWw'
p369
aS'4OABFHxKDYxJh9A2BhoRkg'
p370
aS'TjKE1Ji-XAdYDlxYMKvZAw'
p371
aS'e7N4dO5w2Ef5RdSnH_n4Jw'
p372
aS'SuQpsHxcxCAB8kxPEIXiBg'
p373
aS'-zEpEmDfFQL-ph0N3BDlXA'
p374
aS'JENZ-Yjl6D5ZPqV5fPSO3g'
p375
aS'zswdqM8Av3KxVv9o7_6ORA'
p376
aS'SmHuGnqBCjGg5e8QAkBTtA'
p377
aS'J7vl6cA5uF0PkqS2ejDTkQ'
p378
aS'pMiz7SP82Tknv1NbVqoSfg'
p379
aS'OrX0D6xwxmymxfzWRatT7Q'
p380
aS'-Jhlh8Scjy669NdtCfKSSg'
p381
aS'9BxyFs3bVmpH63JMs8P_HQ'
p382
aS'O3zVw-VAcJi8ta4B6v5iAA'
p383
aS'1KGLQ6Sxji5jqsQnsC6fdQ'
p384
aS'EYmj4QlhqgrsMXnLeGLu3Q'
p385
aS'z50FVnW-Lcevj8z2KZQ_gw'
p386
aS'hHVovM_cr6GSrjDTyWfsuQ'
p387
aS'ckdGk8ForF9zEczmu4-tTA'
p388
aS'Cw0JNNdPja9CVyT6ugGMdw'
p389
aS'mofOjB6flg-eAWOFbOkHfQ'
p390
aS'DDm_333l9fHzlv7yfuF5dQ'
p391
aS'RYClIlSwSPpaptR8tOF0AQ'
p392
aS'BsxefnHbrpDN7HB2hJrEiw'
p393
aS'D1vTUM0rBlcU39A9emQW8Q'
p394
aS'aqTdhZDTSjA42_Uh2E6V7A'
p395
aS'RdwJXTQo3Ez9DAbGpybl_w'
p396
aS'FTky74MxFIMvAJepeUUzEQ'
p397
aS'-LfTBo0oa_uD454ScEW2XA'
p398
aS'E8b-loa-89wsnJpu9ff_Gg'
p399
aS'4cPM1Hcj3UiN3fxyOsiR9w'
p400
aS'd_Wm9CpzIo_0T-XLfq1UcA'
p401
aS'c2uAqJ2REpLMCZO2jxdi9w'
p402
aS'RT7C2OY2W675e6qUUrBdsA'
p403
aS'Y2ySw4qMHgjd1T_2Zt9Eeg'
p404
aS'YJ8Ehqq4Jr2_xmtRe5aXLQ'
p405
aS'BKLWat64KRYzsT2DgY6Xxg'
p406
aS'nG59soBP2SaQ25rf2n-0bA'
p407
aS'1YqkSk2xorNWPOoieIMApQ'
p408
aS'MV2sYTXcBz7bH4a960ac7w'
p409
aS'9_rqpGe9y3vaJMCwjPre8Q'
p410
aS'b8iHKolCsC4ZTM8X9-L01A'
p411
aS'THC1S01liu8wIeg2ienLiw'
p412
aS'aKiE0aZ6vGyOlH-uVOHONw'
p413
aS'tEkUEOsxj9h0pzClYrGXMQ'
p414
aS'kUICYu0N_TbtCz0Z8ynPFw'
p415
aS'NZ3A0xYdnmIG68mZeZV6AA'
p416
aS'9kng6u-2Err_0mkhea5T3g'
p417
aS'fY0Dpw5a3i1CMjMuT2SaDQ'
p418
aS'-fiUXzkxRfbHY9TKWwuptw'
p419
aS'D88CTD2UrsSTsrDDuL04_A'
p420
aS'bP_HZle1uUaILvSaS_cYbQ'
p421
aS'X57f6FWZiwI1wOidPPhOrQ'
p422
aS'DS3-yphtWDHAdXLtIoqdAA'
p423
aS'9qnlmW_Az2itTy0fmoE-7Q'
p424
aS'kNtToQSP_Y5U8tznLXuCaw'
p425
aS'uzpdcxvlKx5BuoWU3NRHbA'
p426
aS'C3d4HqDjWq9e_0cPfmPykg'
p427
aS'3TBouLwX21Ic5cJNlAl7Eg'
p428
aS'Gvox18F9QxsSS9qG2O8E-A'
p429
aS'o5Mofj5KJkYAMs_fhxftpg'
p430
aS'TEXUVhF-G_v2Sxwqti8HQA'
p431
aS'-2q4dnUw0gGJniGW2aPamQ'
p432
aS'6o6XxnI8RWhnAVSdxqCJWQ'
p433
aS'syP9qsN2-TiMbxh2zv1_NQ'
p434
aS'dEKnEqm6Q44copoadiT8Iw'
p435
aS'K2lscpx0S9wpqNz0s9AIwQ'
p436
aS'zrtRx2bm55zVeYIpzLLm3w'
p437
aS'RQKrr8j4jS_7ubGMfAwnIQ'
p438
aS'RofPcfgxItpYw1eQ3e1Hjw'
p439
aS'0LCgN42C9H6iqClFevdiBA'
p440
aS'yxMhVaB65N5VGEWSvU9Qzw'
p441
aS'gUTz4Y3GIPq8zq1Mi-kHzw'
p442
aS'ndyX7UHI9XHWmZklg_TCxQ'
p443
aS'O1Sp0pDa8wmMfOC-FUGZFQ'
p444
aS'5jXwI9WpDxGDmzmkmE0RTg'
p445
aS'VIJ2KiDKhUVhhpNylEIfog'
p446
aS'i9M6oO2LMUrrEytHnHjyLA'
p447
aS'z-Q3uNXOjr7iYpl9kexFzQ'
p448
aS'4i1AM_8rL1M2nd9xTpE1kg'
p449
aS'dYfB6KjDrtmN9wbtWg5qEQ'
p450
aS'bYCYezhqkhMOTjXHEzDZAw'
p451
aS'Frbldz6phswVyMNvwherhA'
p452
aS'dVBp-ayxdvwG95BYfqKwDw'
p453
aS'ovApUucCKSb9k0lTP2JieQ'
p454
aS'DjDcRTH09r1Yma6qd0om0Q'
p455
aS'Pj8n8jDPRdXi7RdOABJkWA'
p456
aS'm8qGdllgcUSqZmcryQWM9A'
p457
aS'Kws-gPJjF4RxLxJE_2BjKQ'
p458
aS'X0aBITLKCMj_llgfMcWkFw'
p459
aS'cDGaMsCAx8guR1IUrxLxWA'
p460
aS'yRKrMWQxQaMeR18s5ajcYw'
p461
aS'ka_oewRLyrXeX3NXakQwvA'
p462
aS'lrrUyxzlvqp-niBEj6_6dg'
p463
aS'RQxLNvAra_MUUPHdhukilA'
p464
aS'x4eptNxzj43ihrk0nZB_OA'
p465
aS'nD4cF5IH8RE7LFGdR2FMUA'
p466
aS'rXIDrS8Rz8r09vH4gjHfGQ'
p467
aS'-7PuYohz9dR80iGfVR_kLA'
p468
aS'qeJnMI5RmyJ2TZvkqvjn6Q'
p469
aS'nh1-ax9wPNCqskcJYIWogg'
p470
aS'tDTUSKxPUUkpFaxBZZl4Cw'
p471
aS'4jB9-c7gs6YPIAYcWQpaHg'
p472
aS'nplkC6vnh4qT9xH-vhup6w'
p473
aS'SCxtzXcvyk1hygdmOZqd1A'
p474
aS'Icj9QzQxqvzOmPm_liAq1Q'
p475
aS'njngMI0mhAGJ-kH0oo68Ow'
p476
aS'kLojwXxsSWHtL_AxeBie1A'
p477
aS'w9h-pTp1K6JMos-xzl3Wyw'
p478
aS'6ockUmdOBYBApEsUCJkBzA'
p479
aS'O4-tpRbaMfrdx_okiVAbaw'
p480
aS'J03fJlz-pi9x2oqxZ4vRng'
p481
aS'BQbDU21SuXERM_gK9AA9AQ'
p482
aS'eY8afQl17K4N2bf3z6nkCQ'
p483
aS'PUe3Oz-VAPMXbu_zQ51dYQ'
p484
aS'lZ0W0-pQyS35ahsrZezNiw'
p485
aS'BiBAQWfc67AFrXC92SrifA'
p486
aS'9XMOJYI0jh6cycrZK9Js4g'
p487
aS'0xjqQ2h5SzWe8zsHr6BG5w'
p488
aS'_zviKOPGw65MAnNjzFXSug'
p489
aS'V-_Kh0RtKcKdQ0ON4eVQ-Q'
p490
aS'KUPKiomUAHyxBs_Lxeq4Vw'
p491
aS'IYASJOu_TXz8PpPbt-Clbg'
p492
aS'S27XLKsX1B-scfdDQ4rTGQ'
p493
aS'UUsS7SrTQQ2AvvpslfrvFA'
p494
aS'LW21U6m6axC2lCLYc0fFSA'
p495
aS'mG3SqAh1txeosGJBGfwFTw'
p496
aS'MQ-xcuUXXBYvrXzy7BmOFw'
p497
aS'kBgpdaS9joBXioj89zo1QA'
p498
aS'exx_UjNFHW2uPI1ZT7JFNA'
p499
aS'pA3ltu4j31uatVu0_Gu1PQ'
p500
aS'E6QAh8UPRo6Tlg6hkcWCHw'
p501
aS'TQg3tu8U3x8OaC2R4KKh7g'
p502
aS't0f8qXrKGNWv6j8MGmosRg'
p503
aS'8ed4YmEWPr5nfau82-OtCA'
p504
aS'u7jiuYiz-zVwsh0TGRHUIg'
p505
aS'C31ExBTn_6UxbTVkWPtNkg'
p506
aS'qIomOSnR0zaU7kv6K-0mcA'
p507
aS'XuByFsXXhnKmZ6hxucOj7A'
p508
aS'5jak2hYO5ikUzjm-Ytao5A'
p509
aS'wRJQdkMCbvIj269WjXtuyQ'
p510
aS'iFWc6PuTA_mKr9liDeIQqw'
p511
aS'ODIfyx5okLpREh511Qqd4g'
p512
aS'EI1JbmO_Le9u3qaYJtlMjA'
p513
aS'cGuUEFw374zfpr3Cp8ywJw'
p514
aS'Wdy7J_EOL2lvDKSscdQ4Pw'
p515
aS'rwuMWGqt7L5l5lDsOYv1dw'
p516
aS'RTmIbq33chUSa-etGiF8Lg'
p517
aS'zPPw_vUatLmvnRpW1OoX6w'
p518
aS'uJIIgBmcIn-Ye-anrqK0DQ'
p519
aS'5_cn7M-9swHrFbnqZtYGBQ'
p520
aS'vqEtZ7CtNB9G8WMzjwJA2g'
p521
aS'bXHbLuxyBZemyB0j7GJbTA'
p522
aS'tH9fJdyaSM1SE7Fm6X11cg'
p523
aS'uGwwPkw2AEvKkVHiSufhzQ'
p524
aS'm4DwPVxmFDQE_FnGIOa3cQ'
p525
aS'9zGkU1ahmYCn3DlnKOXhqA'
p526
aS'YG3cf30rN3K9H56-JOG6Iw'
p527
aS'PjOobIUE5onVqU_t7gskrQ'
p528
aS'L2c-qKZWumCmOCR-dqBLrg'
p529
aS't_yiQnxUDdPPCN2z4QyezA'
p530
aS'AtLv64FV-Pw6JuT3XUKU1g'
p531
aS'OBRf8DQVw61CDrZvwXLGlQ'
p532
aS'wFBvqxzfkPgzG2EmGKcguw'
p533
aS'4LZPqYJWbfwscbl6uJntDA'
p534
aS'5uvf3QpmrdU2aiqmF4278A'
p535
aS'8ztbiTDIi-2yQLVul58c5w'
p536
aS'JPEYaTqH6NMYIshECydAyw'
p537
aS'xE4WM5ZvtBkFnojFUTQfqg'
p538
aS'IHJKFxoWXONoz-JamfOnlg'
p539
aS'_n5wggIEfBzCUepjgvHXAQ'
p540
aS'3P1dBNauEwkToURbq_I0Dw'
p541
aS'1p6qHrapvuKpbZGLT9qskw'
p542
aS'zMcmS7YojvNbmJCa-iTSYw'
p543
aS'vsoEZauF4lrADIqCYXySFQ'
p544
aS'FUr2uEolARu7rv2TQYKPqg'
p545
aS'_TWp4gqGF7tQUGloTClcNg'
p546
aS'yLKoESPQ8BN7dn6ADzZicQ'
p547
aS'F1qPjasn0R6-j8sa6iYNmA'
p548
aS'ky0cUgRt1Bye3cxgxXpgYA'
p549
aS'abA0s0uxoeOn7zNm-1dDxw'
p550
aS'0ptR21GHRuQ1MFtxGNcxzw'
p551
aS'8mKV3KThn3wXGL3OVxrCNg'
p552
aS'DysXlYb_WVlksoip8atIvQ'
p553
aS'89-bwvH5mWWOOb00VTUyFQ'
p554
aS'MqhxKfI7oMjUTMqH2gnhyg'
p555
aS'0-WocGTpO3Zm4q1Zzz49Rw'
p556
aS'i1YpfdZTpLj8TrKm9HlCig'
p557
aS'U6xqyLII8WqNRbhEx3FXHQ'
p558
aS'RWd83o4drIOE60W1meaESA'
p559
aS'Q8kTugdx8Iw5AzRzz6qd8w'
p560
aS'jeTfL2kCyBtmFGSrSQHqVw'
p561
aS'k6m3Msok7bto6biv5guEzg'
p562
aS'x6fvLWdx-Kb8_oMeqaHhRQ'
p563
aS'IGb6MjNdPRsNVNEplGG3RA'
p564
aS'ladygnq1uvjC60Wuw3ocWQ'
p565
aS'th4pZ5LkoIIkb1Vmu_m2DA'
p566
aS'Tiu3iRXMlzEEI6Epp3I8lg'
p567
aS'FM-rxNJP7eSXZGwizEd-Dg'
p568
aS'wsuzuLD3KV7L8oMinLCI0A'
p569
aS'VVkO08qlcTCkCq6t5gLcpw'
p570
aS'BoTQepQTjGbTXA4g4Hj-WA'
p571
aS'pjO0ZRGpCwlaOzipZDa3HA'
p572
aS'0QgFIP9W0eGZSxCSQRQSCg'
p573
aS'38AI6oP2ObTmtiUuoN0Uvw'
p574
aS'o13eH93qmWVNFZogkjhd9w'
p575
aS'UPCTlq-r-yZcWFFH2qOlWg'
p576
aS'2_70xR8dAmNKj9zP1cAhWQ'
p577
aS'Igr5Id1TWyM3JLsY_td9_w'
p578
aS'gnqHyA6gY2-m9S-FKt6Xqw'
p579
aS'aR0kTa6WEFROLY5dJ4cmrg'
p580
aS'CJ0sbMmixbh21d9fUoBEMg'
p581
aS'd51qbs6CitHbFD--G-AEVw'
p582
aS'pLBF8QrRkMicJcsjAqW7ag'
p583
aS'NR8k-wkG1rObtnPIJTKMvw'
p584
aS'xWGn7oqLOZu_00H8pZOtsQ'
p585
aS'_a6jhRFIgOe74U73T5B-Ww'
p586
aS'CrIWqmuO2uQWwl3z11K_BA'
p587
aS'5dCJy5oH6ZHqB_7cx76DhA'
p588
aS'VZtXF2A-MNt5J6d6ih7tkA'
p589
aS'H5oG0QHM5bseQeASHesfMA'
p590
aS'hxlfoblUAzNSOszKlyaV6g'
p591
aS'_zCwyuW5XrRKw8oK8EM49A'
p592
aS'ObNQVg_ohRVLex4ppmMC5w'
p593
aS'-PBIdZVMvKaOs6Kbn1kFkQ'
p594
aS'SUktrYdNQD8k2vvkM4OpfA'
p595
aS'0mhOoKxdWMPg4PvozmSMbg'
p596
aS'D6SCh4BwNb52wZIqXdS4JQ'
p597
aS'rP-MueqMyZbiDbOEUELXtQ'
p598
aS'2wNI-81CncuC21xr92anTA'
p599
aS'wpDJUu8Ty_eyQJENUy7fIw'
p600
aS'iDDW5kjoLVN9rqrGM0cwjg'
p601
aS'ViJjcvNH_Up1mXZ5NieApg'
p602
aS'RwHE2Rt-DHlwWuxFLjPbgA'
p603
aS'Ah4i15g8Ow_zphzcpulTxQ'
p604
aS'hMgIF04rrJ7oB1lGIpFt5w'
p605
aS'Epr8Ft7LwYAzotFwxQX6uw'
p606
aS'BLtzUCwmGOSVgPJ78N3ORA'
p607
aS'-S1BkxguVmi2G_O6Bcoabg'
p608
aS'hJ88unGZxRYN85XQ0qAS4g'
p609
aS'tjM2CZqRJ17oFapBTmGovw'
p610
aS'4cCMR1kxIJqdJ8klLffmqg'
p611
aS'EZOoB2D8uQHV_gJoGCMTxQ'
p612
aS'e88VWa9xdHmSFdMZne9eLQ'
p613
a.